ARM GAS  C:\Users\biosh\AppData\Local\Temp\ccsqKlHg.s 			page 1


   1              		.syntax unified
   2              		.cpu cortex-m0
   3              		.fpu softvfp
   4              		.eabi_attribute 20, 1
   5              		.eabi_attribute 21, 1
   6              		.eabi_attribute 23, 3
   7              		.eabi_attribute 24, 1
   8              		.eabi_attribute 25, 1
   9              		.eabi_attribute 26, 1
  10              		.eabi_attribute 30, 1
  11              		.eabi_attribute 34, 0
  12              		.eabi_attribute 18, 4
  13              		.thumb
  14              		.syntax unified
  15              		.file	"Keypad.c"
  16              		.text
  17              	.Ltext0:
  18              		.cfi_sections	.debug_frame
  19              		.section	.text.CheckPassword,"ax",%progbits
  20              		.align	2
  21              		.global	CheckPassword
  22              		.code	16
  23              		.thumb_func
  24              		.type	CheckPassword, %function
  25              	CheckPassword:
  26              	.LFB35:
  27              		.file 1 "Keypad.c"
   1:Keypad.c      **** #include "stdbool.h"
   2:Keypad.c      **** #include "project.h"
   3:Keypad.c      **** #include "Keypad.h"
   4:Keypad.c      **** #include <stdio.h>
   5:Keypad.c      **** #include "Lib_led.h"
   6:Keypad.c      **** #include <string.h>
   7:Keypad.c      **** 
   8:Keypad.c      **** static bool validkey= false;
   9:Keypad.c      **** 
  10:Keypad.c      **** uint8 value= 0x00;
  11:Keypad.c      **** 
  12:Keypad.c      **** char show[250];
  13:Keypad.c      **** 
  14:Keypad.c      **** int key;
  15:Keypad.c      **** char contrasena[4];
  16:Keypad.c      **** char inputPassword[4];
  17:Keypad.c      **** 
  18:Keypad.c      **** 
  19:Keypad.c      **** const char *keyast = "*";
  20:Keypad.c      **** const char *key4 = "4";
  21:Keypad.c      **** const char *key7 = "7";
  22:Keypad.c      **** const char *key1 = "1";
  23:Keypad.c      **** 
  24:Keypad.c      **** 
  25:Keypad.c      **** void CheckPassword(char input[4]){
  28              		.loc 1 25 0
  29              		.cfi_startproc
  30              		@ args = 0, pretend = 0, frame = 0
  31              		@ frame_needed = 0, uses_anonymous_args = 0
  32              	.LVL0:
ARM GAS  C:\Users\biosh\AppData\Local\Temp\ccsqKlHg.s 			page 2


  33 0000 70B5     		push	{r4, r5, r6, lr}
  34              		.cfi_def_cfa_offset 16
  35              		.cfi_offset 4, -16
  36              		.cfi_offset 5, -12
  37              		.cfi_offset 6, -8
  38              		.cfi_offset 14, -4
  39 0002 0500     		movs	r5, r0
  26:Keypad.c      ****     strcat(contrasena, "1");
  40              		.loc 1 26 0
  41 0004 144C     		ldr	r4, .L3
  42 0006 2000     		movs	r0, r4
  43              	.LVL1:
  44 0008 FFF7FEFF 		bl	strlen
  45              	.LVL2:
  46 000c 0019     		adds	r0, r0, r4
  47 000e 0222     		movs	r2, #2
  48 0010 1249     		ldr	r1, .L3+4
  49 0012 FFF7FEFF 		bl	memcpy
  50              	.LVL3:
  27:Keypad.c      ****     strcat(contrasena, "4");
  51              		.loc 1 27 0
  52 0016 2000     		movs	r0, r4
  53 0018 FFF7FEFF 		bl	strlen
  54              	.LVL4:
  55 001c 0019     		adds	r0, r0, r4
  56 001e 0222     		movs	r2, #2
  57 0020 0F49     		ldr	r1, .L3+8
  58 0022 FFF7FEFF 		bl	memcpy
  59              	.LVL5:
  28:Keypad.c      ****     strcat(contrasena, "7");
  60              		.loc 1 28 0
  61 0026 2000     		movs	r0, r4
  62 0028 FFF7FEFF 		bl	strlen
  63              	.LVL6:
  64 002c 0019     		adds	r0, r0, r4
  65 002e 0222     		movs	r2, #2
  66 0030 0C49     		ldr	r1, .L3+12
  67 0032 FFF7FEFF 		bl	memcpy
  68              	.LVL7:
  29:Keypad.c      ****     strcat(contrasena, "*");
  69              		.loc 1 29 0
  70 0036 2000     		movs	r0, r4
  71 0038 FFF7FEFF 		bl	strlen
  72              	.LVL8:
  73 003c 0019     		adds	r0, r0, r4
  74 003e 0222     		movs	r2, #2
  75 0040 0949     		ldr	r1, .L3+16
  76 0042 FFF7FEFF 		bl	memcpy
  77              	.LVL9:
  30:Keypad.c      ****     
  31:Keypad.c      ****     if(contrasena==input){
  78              		.loc 1 31 0
  79 0046 A542     		cmp	r5, r4
  80 0048 04D1     		bne	.L1
  32:Keypad.c      ****         PrenderVerde();
  81              		.loc 1 32 0
  82 004a FFF7FEFF 		bl	PrenderVerde
ARM GAS  C:\Users\biosh\AppData\Local\Temp\ccsqKlHg.s 			page 3


  83              	.LVL10:
  33:Keypad.c      ****         CyDelay(5000);
  84              		.loc 1 33 0
  85 004e 0748     		ldr	r0, .L3+20
  86 0050 FFF7FEFF 		bl	CyDelay
  87              	.LVL11:
  88              	.L1:
  34:Keypad.c      ****     }
  35:Keypad.c      ****     
  36:Keypad.c      **** }
  89              		.loc 1 36 0
  90              		@ sp needed
  91              	.LVL12:
  92 0054 70BD     		pop	{r4, r5, r6, pc}
  93              	.L4:
  94 0056 C046     		.align	2
  95              	.L3:
  96 0058 00000000 		.word	contrasena
  97 005c 00000000 		.word	.LC1
  98 0060 04000000 		.word	.LC3
  99 0064 08000000 		.word	.LC5
 100 0068 0C000000 		.word	.LC7
 101 006c 88130000 		.word	5000
 102              		.cfi_endproc
 103              	.LFE35:
 104              		.size	CheckPassword, .-CheckPassword
 105              		.section	.text.InterrupRowButtons,"ax",%progbits
 106              		.align	2
 107              		.global	InterrupRowButtons
 108              		.code	16
 109              		.thumb_func
 110              		.type	InterrupRowButtons, %function
 111              	InterrupRowButtons:
 112              	.LFB38:
  37:Keypad.c      **** 
  38:Keypad.c      **** void Keypad_stop(void){  
  39:Keypad.c      ****     
  40:Keypad.c      **** }
  41:Keypad.c      **** 
  42:Keypad.c      **** 
  43:Keypad.c      **** void Keypad_start(void){
  44:Keypad.c      ****     UART_Start();
  45:Keypad.c      ****     IsrRowPins_StartEx(InterrupRowButtons);    
  46:Keypad.c      ****     Col_Write(0x00);
  47:Keypad.c      ****     IsrRowPins_Enable();
  48:Keypad.c      ****     
  49:Keypad.c      **** }
  50:Keypad.c      **** 
  51:Keypad.c      **** 
  52:Keypad.c      **** 
  53:Keypad.c      **** CY_ISR(InterrupRowButtons){
 113              		.loc 1 53 0
 114              		.cfi_startproc
 115              		@ args = 0, pretend = 0, frame = 0
 116              		@ frame_needed = 0, uses_anonymous_args = 0
 117 0000 70B5     		push	{r4, r5, r6, lr}
 118              		.cfi_def_cfa_offset 16
ARM GAS  C:\Users\biosh\AppData\Local\Temp\ccsqKlHg.s 			page 4


 119              		.cfi_offset 4, -16
 120              		.cfi_offset 5, -12
 121              		.cfi_offset 6, -8
 122              		.cfi_offset 14, -4
  54:Keypad.c      ****     Filas_ClearInterrupt();
 123              		.loc 1 54 0
 124 0002 FFF7FEFF 		bl	Filas_ClearInterrupt
 125              	.LVL13:
  55:Keypad.c      ****     
  56:Keypad.c      ****     
  57:Keypad.c      ****     uint8 i, j;
  58:Keypad.c      ****     
  59:Keypad.c      ****     for(i=0, j=0;i<255; ++i){
 126              		.loc 1 59 0
 127 0006 0025     		movs	r5, #0
 128 0008 0024     		movs	r4, #0
 129 000a 1AE0     		b	.L6
 130              	.LVL14:
 131              	.L10:
  60:Keypad.c      ****         if(Filas_Read()==0x07 || Filas_Read()==0x0B || Filas_Read()==0x0D || Filas_Read()==0x0E){
 132              		.loc 1 60 0
 133 000c FFF7FEFF 		bl	Filas_Read
 134              	.LVL15:
 135 0010 0728     		cmp	r0, #7
 136 0012 0BD0     		beq	.L7
 137              		.loc 1 60 0 is_stmt 0 discriminator 1
 138 0014 FFF7FEFF 		bl	Filas_Read
 139              	.LVL16:
 140 0018 0B28     		cmp	r0, #11
 141 001a 07D0     		beq	.L7
 142              		.loc 1 60 0 discriminator 2
 143 001c FFF7FEFF 		bl	Filas_Read
 144              	.LVL17:
 145 0020 0D28     		cmp	r0, #13
 146 0022 03D0     		beq	.L7
 147              		.loc 1 60 0 discriminator 3
 148 0024 FFF7FEFF 		bl	Filas_Read
 149              	.LVL18:
 150 0028 0E28     		cmp	r0, #14
 151 002a 07D1     		bne	.L36
 152              	.L7:
  61:Keypad.c      ****             j++;
 153              		.loc 1 61 0 is_stmt 1
 154 002c 0135     		adds	r5, r5, #1
 155              	.LVL19:
 156 002e EDB2     		uxtb	r5, r5
 157              	.LVL20:
  62:Keypad.c      ****             if(j==100){
 158              		.loc 1 62 0
 159 0030 642D     		cmp	r5, #100
 160 0032 04D1     		bne	.L8
  63:Keypad.c      ****                 validkey=true;
 161              		.loc 1 63 0
 162 0034 0122     		movs	r2, #1
 163 0036 7A4B     		ldr	r3, .L37
 164 0038 1A70     		strb	r2, [r3]
  64:Keypad.c      ****                 break;
ARM GAS  C:\Users\biosh\AppData\Local\Temp\ccsqKlHg.s 			page 5


 165              		.loc 1 64 0
 166 003a 04E0     		b	.L9
 167              	.L36:
  65:Keypad.c      ****             }
  66:Keypad.c      ****         }else{
  67:Keypad.c      ****             j=0; 
 168              		.loc 1 67 0
 169 003c 0025     		movs	r5, #0
 170              	.LVL21:
 171              	.L8:
  59:Keypad.c      ****         if(Filas_Read()==0x07 || Filas_Read()==0x0B || Filas_Read()==0x0D || Filas_Read()==0x0E){
 172              		.loc 1 59 0 discriminator 2
 173 003e 0134     		adds	r4, r4, #1
 174              	.LVL22:
 175 0040 E4B2     		uxtb	r4, r4
 176              	.LVL23:
 177              	.L6:
  59:Keypad.c      ****         if(Filas_Read()==0x07 || Filas_Read()==0x0B || Filas_Read()==0x0D || Filas_Read()==0x0E){
 178              		.loc 1 59 0 is_stmt 0 discriminator 1
 179 0042 FF2C     		cmp	r4, #255
 180 0044 E2D1     		bne	.L10
 181              	.L9:
  68:Keypad.c      ****         }
  69:Keypad.c      ****     }
  70:Keypad.c      ****     
  71:Keypad.c      ****     if(validkey==true){
 182              		.loc 1 71 0 is_stmt 1
 183 0046 764B     		ldr	r3, .L37
 184 0048 1B78     		ldrb	r3, [r3]
 185 004a 002B     		cmp	r3, #0
 186 004c 00D1     		bne	.LCB150
 187 004e E5E0     		b	.L5	@long jump
 188              	.LCB150:
  72:Keypad.c      ****         Col_Write(0x0e);
 189              		.loc 1 72 0
 190 0050 0E20     		movs	r0, #14
 191 0052 FFF7FEFF 		bl	Col_Write
 192              	.LVL24:
  73:Keypad.c      ****         value= Filas_Read();
 193              		.loc 1 73 0
 194 0056 FFF7FEFF 		bl	Filas_Read
 195              	.LVL25:
 196 005a 714B     		ldr	r3, .L37
 197 005c 5870     		strb	r0, [r3, #1]
  74:Keypad.c      ****         
  75:Keypad.c      ****         if(value !=0x0F){
 198              		.loc 1 75 0
 199 005e 0F28     		cmp	r0, #15
 200 0060 3FD0     		beq	.L12
  76:Keypad.c      ****             switch(Filas_Read()){
 201              		.loc 1 76 0
 202 0062 FFF7FEFF 		bl	Filas_Read
 203              	.LVL26:
 204 0066 0B28     		cmp	r0, #11
 205 0068 22D0     		beq	.L13
 206 006a 02D8     		bhi	.L14
 207 006c 0728     		cmp	r0, #7
ARM GAS  C:\Users\biosh\AppData\Local\Temp\ccsqKlHg.s 			page 6


 208 006e 2CD0     		beq	.L15
 209 0070 D4E0     		b	.L5
 210              	.L14:
 211 0072 0D28     		cmp	r0, #13
 212 0074 0FD0     		beq	.L16
 213 0076 0E28     		cmp	r0, #14
 214 0078 00D0     		beq	.LCB175
 215 007a CFE0     		b	.L5	@long jump
 216              	.LCB175:
  77:Keypad.c      ****                 case 0x0e:
  78:Keypad.c      ****                     key='*';
 217              		.loc 1 78 0
 218 007c 2A22     		movs	r2, #42
 219 007e 694B     		ldr	r3, .L37+4
 220 0080 1A60     		str	r2, [r3]
  79:Keypad.c      ****                     CyDelay(500);
 221              		.loc 1 79 0
 222 0082 E730     		adds	r0, r0, #231
 223 0084 FF30     		adds	r0, r0, #255
 224 0086 FFF7FEFF 		bl	CyDelay
 225              	.LVL27:
  80:Keypad.c      ****                     strcat(inputPassword,keyast);                    
 226              		.loc 1 80 0
 227 008a 674B     		ldr	r3, .L37+8
 228 008c 1968     		ldr	r1, [r3]
 229 008e 6748     		ldr	r0, .L37+12
 230 0090 FFF7FEFF 		bl	strcat
 231              	.LVL28:
  81:Keypad.c      ****                     
  82:Keypad.c      ****                     break;
 232              		.loc 1 82 0
 233 0094 25E0     		b	.L12
 234              	.L16:
  83:Keypad.c      ****                 case 0x0d:
  84:Keypad.c      ****                     key=7;
 235              		.loc 1 84 0
 236 0096 0722     		movs	r2, #7
 237 0098 624B     		ldr	r3, .L37+4
 238 009a 1A60     		str	r2, [r3]
  85:Keypad.c      ****                     CyDelay(500);
 239              		.loc 1 85 0
 240 009c FA20     		movs	r0, #250
 241 009e 4000     		lsls	r0, r0, #1
 242 00a0 FFF7FEFF 		bl	CyDelay
 243              	.LVL29:
  86:Keypad.c      ****                     strcat(inputPassword,key7);
 244              		.loc 1 86 0
 245 00a4 604B     		ldr	r3, .L37+8
 246 00a6 5968     		ldr	r1, [r3, #4]
 247 00a8 6048     		ldr	r0, .L37+12
 248 00aa FFF7FEFF 		bl	strcat
 249              	.LVL30:
  87:Keypad.c      ****                     
  88:Keypad.c      ****                     break;
 250              		.loc 1 88 0
 251 00ae 18E0     		b	.L12
 252              	.L13:
ARM GAS  C:\Users\biosh\AppData\Local\Temp\ccsqKlHg.s 			page 7


  89:Keypad.c      ****                 case 0x0b: 
  90:Keypad.c      ****                     key=4;
 253              		.loc 1 90 0
 254 00b0 0422     		movs	r2, #4
 255 00b2 5C4B     		ldr	r3, .L37+4
 256 00b4 1A60     		str	r2, [r3]
  91:Keypad.c      ****                     CyDelay(500);
 257              		.loc 1 91 0
 258 00b6 FA20     		movs	r0, #250
 259 00b8 4000     		lsls	r0, r0, #1
 260 00ba FFF7FEFF 		bl	CyDelay
 261              	.LVL31:
  92:Keypad.c      ****                     strcat(inputPassword,key4);
 262              		.loc 1 92 0
 263 00be 5A4B     		ldr	r3, .L37+8
 264 00c0 9968     		ldr	r1, [r3, #8]
 265 00c2 5A48     		ldr	r0, .L37+12
 266 00c4 FFF7FEFF 		bl	strcat
 267              	.LVL32:
  93:Keypad.c      ****                     
  94:Keypad.c      ****                     break; 
 268              		.loc 1 94 0
 269 00c8 0BE0     		b	.L12
 270              	.L15:
  95:Keypad.c      ****                 case 0x07:
  96:Keypad.c      ****                     key=1;
 271              		.loc 1 96 0
 272 00ca 0122     		movs	r2, #1
 273 00cc 554B     		ldr	r3, .L37+4
 274 00ce 1A60     		str	r2, [r3]
  97:Keypad.c      ****                     CyDelay(500);
 275              		.loc 1 97 0
 276 00d0 FA20     		movs	r0, #250
 277 00d2 4000     		lsls	r0, r0, #1
 278 00d4 FFF7FEFF 		bl	CyDelay
 279              	.LVL33:
  98:Keypad.c      ****                     strcat(inputPassword,key1);
 280              		.loc 1 98 0
 281 00d8 534B     		ldr	r3, .L37+8
 282 00da D968     		ldr	r1, [r3, #12]
 283 00dc 5348     		ldr	r0, .L37+12
 284 00de FFF7FEFF 		bl	strcat
 285              	.LVL34:
 286              	.L12:
  99:Keypad.c      ****                     
 100:Keypad.c      ****                     break;
 101:Keypad.c      ****                 default:
 102:Keypad.c      ****                     return;
 103:Keypad.c      ****                 
 104:Keypad.c      ****             }
 105:Keypad.c      ****         }
 106:Keypad.c      ****         
 107:Keypad.c      ****         Col_Write(0x0d);
 287              		.loc 1 107 0
 288 00e2 0D20     		movs	r0, #13
 289 00e4 FFF7FEFF 		bl	Col_Write
 290              	.LVL35:
ARM GAS  C:\Users\biosh\AppData\Local\Temp\ccsqKlHg.s 			page 8


 108:Keypad.c      ****         value=Filas_Read();
 291              		.loc 1 108 0
 292 00e8 FFF7FEFF 		bl	Filas_Read
 293              	.LVL36:
 294 00ec 4C4A     		ldr	r2, .L37
 295 00ee 5070     		strb	r0, [r2, #1]
 109:Keypad.c      ****         
 110:Keypad.c      ****         if(value != 0x0F){
 296              		.loc 1 110 0
 297 00f0 0F28     		cmp	r0, #15
 298 00f2 29D0     		beq	.L18
 111:Keypad.c      ****             switch(value){
 299              		.loc 1 111 0
 300 00f4 0B28     		cmp	r0, #11
 301 00f6 18D0     		beq	.L19
 302 00f8 02D8     		bhi	.L20
 303 00fa 0728     		cmp	r0, #7
 304 00fc 1DD0     		beq	.L21
 305 00fe 8DE0     		b	.L5
 306              	.L20:
 307 0100 0D28     		cmp	r0, #13
 308 0102 0AD0     		beq	.L22
 309 0104 0E28     		cmp	r0, #14
 310 0106 00D0     		beq	.LCB260
 311 0108 88E0     		b	.L5	@long jump
 312              	.LCB260:
 112:Keypad.c      ****                 case 0x0e:
 113:Keypad.c      ****                     key=0;
 313              		.loc 1 113 0
 314 010a 0022     		movs	r2, #0
 315 010c 454B     		ldr	r3, .L37+4
 316 010e 1A60     		str	r2, [r3]
 114:Keypad.c      ****                     CyDelay(500);
 317              		.loc 1 114 0
 318 0110 FA20     		movs	r0, #250
 319 0112 4000     		lsls	r0, r0, #1
 320 0114 FFF7FEFF 		bl	CyDelay
 321              	.LVL37:
 115:Keypad.c      ****                     break;
 322              		.loc 1 115 0
 323 0118 16E0     		b	.L18
 324              	.L22:
 116:Keypad.c      ****                     
 117:Keypad.c      ****                 case 0x0d:
 118:Keypad.c      ****                     key=8;
 325              		.loc 1 118 0
 326 011a 0822     		movs	r2, #8
 327 011c 414B     		ldr	r3, .L37+4
 328 011e 1A60     		str	r2, [r3]
 119:Keypad.c      ****                     CyDelay(500);
 329              		.loc 1 119 0
 330 0120 FA20     		movs	r0, #250
 331 0122 4000     		lsls	r0, r0, #1
 332 0124 FFF7FEFF 		bl	CyDelay
 333              	.LVL38:
 120:Keypad.c      ****                     break; 
 334              		.loc 1 120 0
ARM GAS  C:\Users\biosh\AppData\Local\Temp\ccsqKlHg.s 			page 9


 335 0128 0EE0     		b	.L18
 336              	.L19:
 121:Keypad.c      ****                 
 122:Keypad.c      ****                 case 0x0b:
 123:Keypad.c      ****                     key=5;
 337              		.loc 1 123 0
 338 012a 0522     		movs	r2, #5
 339 012c 3D4B     		ldr	r3, .L37+4
 340 012e 1A60     		str	r2, [r3]
 124:Keypad.c      ****                     CyDelay(500);
 341              		.loc 1 124 0
 342 0130 FA20     		movs	r0, #250
 343 0132 4000     		lsls	r0, r0, #1
 344 0134 FFF7FEFF 		bl	CyDelay
 345              	.LVL39:
 125:Keypad.c      ****                     break;
 346              		.loc 1 125 0
 347 0138 06E0     		b	.L18
 348              	.L21:
 126:Keypad.c      ****                 
 127:Keypad.c      ****                 case 0x07:
 128:Keypad.c      ****                     key=2;
 349              		.loc 1 128 0
 350 013a 0222     		movs	r2, #2
 351 013c 394B     		ldr	r3, .L37+4
 352 013e 1A60     		str	r2, [r3]
 129:Keypad.c      ****                     CyDelay(500);
 353              		.loc 1 129 0
 354 0140 FA20     		movs	r0, #250
 355 0142 4000     		lsls	r0, r0, #1
 356 0144 FFF7FEFF 		bl	CyDelay
 357              	.LVL40:
 358              	.L18:
 130:Keypad.c      ****                     break;
 131:Keypad.c      **** 
 132:Keypad.c      ****                 default: 
 133:Keypad.c      ****                     return;
 134:Keypad.c      ****             }
 135:Keypad.c      ****         }
 136:Keypad.c      ****         
 137:Keypad.c      ****         Col_Write(0x0b);
 359              		.loc 1 137 0
 360 0148 0B20     		movs	r0, #11
 361 014a FFF7FEFF 		bl	Col_Write
 362              	.LVL41:
 138:Keypad.c      ****         
 139:Keypad.c      ****         value= Filas_Read();
 363              		.loc 1 139 0
 364 014e FFF7FEFF 		bl	Filas_Read
 365              	.LVL42:
 366 0152 334A     		ldr	r2, .L37
 367 0154 5070     		strb	r0, [r2, #1]
 140:Keypad.c      ****         
 141:Keypad.c      ****         if(value !=0x0F){
 368              		.loc 1 141 0
 369 0156 0F28     		cmp	r0, #15
 370 0158 2BD0     		beq	.L24
ARM GAS  C:\Users\biosh\AppData\Local\Temp\ccsqKlHg.s 			page 10


 142:Keypad.c      ****             switch(value){
 371              		.loc 1 142 0
 372 015a 0B28     		cmp	r0, #11
 373 015c 17D0     		beq	.L25
 374 015e 02D8     		bhi	.L26
 375 0160 0728     		cmp	r0, #7
 376 0162 1CD0     		beq	.L27
 377 0164 25E0     		b	.L24
 378              	.L26:
 379 0166 0D28     		cmp	r0, #13
 380 0168 09D0     		beq	.L28
 381 016a 0E28     		cmp	r0, #14
 382 016c 21D1     		bne	.L24
 143:Keypad.c      ****                 case 0x0e:
 144:Keypad.c      ****                     key='D';
 383              		.loc 1 144 0
 384 016e 4422     		movs	r2, #68
 385 0170 2C4B     		ldr	r3, .L37+4
 386 0172 1A60     		str	r2, [r3]
 145:Keypad.c      ****                     CyDelay(500);
 387              		.loc 1 145 0
 388 0174 FA20     		movs	r0, #250
 389 0176 4000     		lsls	r0, r0, #1
 390 0178 FFF7FEFF 		bl	CyDelay
 391              	.LVL43:
 146:Keypad.c      ****                     break;
 392              		.loc 1 146 0
 393 017c 19E0     		b	.L24
 394              	.L28:
 147:Keypad.c      ****                     
 148:Keypad.c      ****                 case 0x0d:
 149:Keypad.c      ****                     key='C';
 395              		.loc 1 149 0
 396 017e 4322     		movs	r2, #67
 397 0180 284B     		ldr	r3, .L37+4
 398 0182 1A60     		str	r2, [r3]
 150:Keypad.c      ****                     CyDelay(500);
 399              		.loc 1 150 0
 400 0184 FA20     		movs	r0, #250
 401 0186 4000     		lsls	r0, r0, #1
 402 0188 FFF7FEFF 		bl	CyDelay
 403              	.LVL44:
 151:Keypad.c      ****                     break;
 404              		.loc 1 151 0
 405 018c 11E0     		b	.L24
 406              	.L25:
 152:Keypad.c      ****                 
 153:Keypad.c      ****                 case 0x0b:
 154:Keypad.c      ****                     key='B';
 407              		.loc 1 154 0
 408 018e 4222     		movs	r2, #66
 409 0190 244B     		ldr	r3, .L37+4
 410 0192 1A60     		str	r2, [r3]
 155:Keypad.c      ****                     CyDelay(500);
 411              		.loc 1 155 0
 412 0194 FA20     		movs	r0, #250
 413 0196 4000     		lsls	r0, r0, #1
ARM GAS  C:\Users\biosh\AppData\Local\Temp\ccsqKlHg.s 			page 11


 414 0198 FFF7FEFF 		bl	CyDelay
 415              	.LVL45:
 156:Keypad.c      ****                     break;
 416              		.loc 1 156 0
 417 019c 09E0     		b	.L24
 418              	.L27:
 157:Keypad.c      ****                 
 158:Keypad.c      ****                 case 0x07:
 159:Keypad.c      ****                     key='A';
 419              		.loc 1 159 0
 420 019e 4122     		movs	r2, #65
 421 01a0 204B     		ldr	r3, .L37+4
 422 01a2 1A60     		str	r2, [r3]
 160:Keypad.c      ****                     CheckPassword(inputPassword);
 423              		.loc 1 160 0
 424 01a4 2148     		ldr	r0, .L37+12
 425 01a6 FFF7FEFF 		bl	CheckPassword
 426              	.LVL46:
 161:Keypad.c      ****                     CyDelay(500);                
 427              		.loc 1 161 0
 428 01aa FA20     		movs	r0, #250
 429 01ac 4000     		lsls	r0, r0, #1
 430 01ae FFF7FEFF 		bl	CyDelay
 431              	.LVL47:
 432              	.L24:
 162:Keypad.c      ****                     break;
 163:Keypad.c      ****                 
 164:Keypad.c      ****                 
 165:Keypad.c      ****                 default:
 166:Keypad.c      ****                     break;
 167:Keypad.c      ****                     
 168:Keypad.c      ****             }
 169:Keypad.c      ****         }
 170:Keypad.c      ****         
 171:Keypad.c      ****         Col_Write(0x07);
 433              		.loc 1 171 0
 434 01b2 0720     		movs	r0, #7
 435 01b4 FFF7FEFF 		bl	Col_Write
 436              	.LVL48:
 172:Keypad.c      ****         value= Filas_Read();
 437              		.loc 1 172 0
 438 01b8 FFF7FEFF 		bl	Filas_Read
 439              	.LVL49:
 440 01bc 184A     		ldr	r2, .L37
 441 01be 5070     		strb	r0, [r2, #1]
 173:Keypad.c      ****         if(value !=0x0F){
 442              		.loc 1 173 0
 443 01c0 0F28     		cmp	r0, #15
 444 01c2 28D0     		beq	.L30
 174:Keypad.c      ****             switch(value){
 445              		.loc 1 174 0
 446 01c4 0B28     		cmp	r0, #11
 447 01c6 17D0     		beq	.L31
 448 01c8 02D8     		bhi	.L32
 449 01ca 0728     		cmp	r0, #7
 450 01cc 1CD0     		beq	.L33
 451 01ce 22E0     		b	.L30
ARM GAS  C:\Users\biosh\AppData\Local\Temp\ccsqKlHg.s 			page 12


 452              	.L32:
 453 01d0 0D28     		cmp	r0, #13
 454 01d2 09D0     		beq	.L34
 455 01d4 0E28     		cmp	r0, #14
 456 01d6 1ED1     		bne	.L30
 175:Keypad.c      ****                 case 0x0e:
 176:Keypad.c      ****                     key='#';
 457              		.loc 1 176 0
 458 01d8 2322     		movs	r2, #35
 459 01da 124B     		ldr	r3, .L37+4
 460 01dc 1A60     		str	r2, [r3]
 177:Keypad.c      ****                     CyDelay(500);
 461              		.loc 1 177 0
 462 01de FA20     		movs	r0, #250
 463 01e0 4000     		lsls	r0, r0, #1
 464 01e2 FFF7FEFF 		bl	CyDelay
 465              	.LVL50:
 178:Keypad.c      ****                     break;
 466              		.loc 1 178 0
 467 01e6 16E0     		b	.L30
 468              	.L34:
 179:Keypad.c      ****                 case 0x0d:
 180:Keypad.c      ****                     key=9;
 469              		.loc 1 180 0
 470 01e8 0922     		movs	r2, #9
 471 01ea 0E4B     		ldr	r3, .L37+4
 472 01ec 1A60     		str	r2, [r3]
 181:Keypad.c      ****                     CyDelay(500);
 473              		.loc 1 181 0
 474 01ee FA20     		movs	r0, #250
 475 01f0 4000     		lsls	r0, r0, #1
 476 01f2 FFF7FEFF 		bl	CyDelay
 477              	.LVL51:
 182:Keypad.c      ****                     break;
 478              		.loc 1 182 0
 479 01f6 0EE0     		b	.L30
 480              	.L31:
 183:Keypad.c      ****                 
 184:Keypad.c      ****                 case 0x0b:
 185:Keypad.c      ****                     key=6;
 481              		.loc 1 185 0
 482 01f8 0622     		movs	r2, #6
 483 01fa 0A4B     		ldr	r3, .L37+4
 484 01fc 1A60     		str	r2, [r3]
 186:Keypad.c      ****                     CyDelay(500);
 485              		.loc 1 186 0
 486 01fe FA20     		movs	r0, #250
 487 0200 4000     		lsls	r0, r0, #1
 488 0202 FFF7FEFF 		bl	CyDelay
 489              	.LVL52:
 187:Keypad.c      ****                     break;
 490              		.loc 1 187 0
 491 0206 06E0     		b	.L30
 492              	.L33:
 188:Keypad.c      ****                 case 0x07:
 189:Keypad.c      ****                     key=3;
 493              		.loc 1 189 0
ARM GAS  C:\Users\biosh\AppData\Local\Temp\ccsqKlHg.s 			page 13


 494 0208 0322     		movs	r2, #3
 495 020a 064B     		ldr	r3, .L37+4
 496 020c 1A60     		str	r2, [r3]
 190:Keypad.c      ****                     CyDelay(500);
 497              		.loc 1 190 0
 498 020e FA20     		movs	r0, #250
 499 0210 4000     		lsls	r0, r0, #1
 500 0212 FFF7FEFF 		bl	CyDelay
 501              	.LVL53:
 502              	.L30:
 191:Keypad.c      ****                     break;
 192:Keypad.c      ****                 default:
 193:Keypad.c      ****                     break;
 194:Keypad.c      ****             }
 195:Keypad.c      ****         }
 196:Keypad.c      ****         Col_Write(0x00);
 503              		.loc 1 196 0
 504 0216 0020     		movs	r0, #0
 505 0218 FFF7FEFF 		bl	Col_Write
 506              	.LVL54:
 507              	.L5:
 197:Keypad.c      ****         
 198:Keypad.c      ****     }
 199:Keypad.c      **** }...
 508              		.loc 1 199 0
 509              		@ sp needed
 510              	.LVL55:
 511              	.LVL56:
 512 021c 70BD     		pop	{r4, r5, r6, pc}
 513              	.L38:
 514 021e C046     		.align	2
 515              	.L37:
 516 0220 00000000 		.word	.LANCHOR0
 517 0224 00000000 		.word	key
 518 0228 00000000 		.word	.LANCHOR1
 519 022c 00000000 		.word	inputPassword
 520              		.cfi_endproc
 521              	.LFE38:
 522              		.size	InterrupRowButtons, .-InterrupRowButtons
 523              		.section	.text.Keypad_stop,"ax",%progbits
 524              		.align	2
 525              		.global	Keypad_stop
 526              		.code	16
 527              		.thumb_func
 528              		.type	Keypad_stop, %function
 529              	Keypad_stop:
 530              	.LFB36:
  38:Keypad.c      **** void Keypad_stop(void){  
 531              		.loc 1 38 0
 532              		.cfi_startproc
 533              		@ args = 0, pretend = 0, frame = 0
 534              		@ frame_needed = 0, uses_anonymous_args = 0
 535              		@ link register save eliminated.
  40:Keypad.c      **** }
 536              		.loc 1 40 0
 537              		@ sp needed
 538 0000 7047     		bx	lr
ARM GAS  C:\Users\biosh\AppData\Local\Temp\ccsqKlHg.s 			page 14


 539              		.cfi_endproc
 540              	.LFE36:
 541              		.size	Keypad_stop, .-Keypad_stop
 542 0002 C046     		.section	.text.Keypad_start,"ax",%progbits
 543              		.align	2
 544              		.global	Keypad_start
 545              		.code	16
 546              		.thumb_func
 547              		.type	Keypad_start, %function
 548              	Keypad_start:
 549              	.LFB37:
  43:Keypad.c      **** void Keypad_start(void){
 550              		.loc 1 43 0
 551              		.cfi_startproc
 552              		@ args = 0, pretend = 0, frame = 0
 553              		@ frame_needed = 0, uses_anonymous_args = 0
 554 0000 10B5     		push	{r4, lr}
 555              		.cfi_def_cfa_offset 8
 556              		.cfi_offset 4, -8
 557              		.cfi_offset 14, -4
  44:Keypad.c      ****     UART_Start();
 558              		.loc 1 44 0
 559 0002 FFF7FEFF 		bl	UART_Start
 560              	.LVL57:
  45:Keypad.c      ****     IsrRowPins_StartEx(InterrupRowButtons);    
 561              		.loc 1 45 0
 562 0006 0448     		ldr	r0, .L41
 563 0008 FFF7FEFF 		bl	IsrRowPins_StartEx
 564              	.LVL58:
  46:Keypad.c      ****     Col_Write(0x00);
 565              		.loc 1 46 0
 566 000c 0020     		movs	r0, #0
 567 000e FFF7FEFF 		bl	Col_Write
 568              	.LVL59:
  47:Keypad.c      ****     IsrRowPins_Enable();
 569              		.loc 1 47 0
 570 0012 FFF7FEFF 		bl	IsrRowPins_Enable
 571              	.LVL60:
  49:Keypad.c      **** }
 572              		.loc 1 49 0
 573              		@ sp needed
 574 0016 10BD     		pop	{r4, pc}
 575              	.L42:
 576              		.align	2
 577              	.L41:
 578 0018 00000000 		.word	InterrupRowButtons
 579              		.cfi_endproc
 580              	.LFE37:
 581              		.size	Keypad_start, .-Keypad_start
 582              		.global	key1
 583              		.global	key7
 584              		.global	key4
 585              		.global	keyast
 586              		.comm	inputPassword,4,4
 587              		.comm	contrasena,4,4
 588              		.comm	key,4,4
 589              		.comm	show,250,4
ARM GAS  C:\Users\biosh\AppData\Local\Temp\ccsqKlHg.s 			page 15


 590              		.global	value
 591              		.data
 592              		.align	2
 593              		.set	.LANCHOR1,. + 0
 594              		.type	keyast, %object
 595              		.size	keyast, 4
 596              	keyast:
 597 0000 0C000000 		.word	.LC7
 598              		.type	key7, %object
 599              		.size	key7, 4
 600              	key7:
 601 0004 08000000 		.word	.LC5
 602              		.type	key4, %object
 603              		.size	key4, 4
 604              	key4:
 605 0008 04000000 		.word	.LC3
 606              		.type	key1, %object
 607              		.size	key1, 4
 608              	key1:
 609 000c 00000000 		.word	.LC1
 610              		.section	.rodata.str1.4,"aMS",%progbits,1
 611              		.align	2
 612              	.LC1:
 613 0000 3100     		.ascii	"1\000"
 614 0002 0000     		.space	2
 615              	.LC3:
 616 0004 3400     		.ascii	"4\000"
 617 0006 0000     		.space	2
 618              	.LC5:
 619 0008 3700     		.ascii	"7\000"
 620 000a 0000     		.space	2
 621              	.LC7:
 622 000c 2A00     		.ascii	"*\000"
 623              		.bss
 624              		.set	.LANCHOR0,. + 0
 625              		.type	validkey, %object
 626              		.size	validkey, 1
 627              	validkey:
 628 0000 00       		.space	1
 629              		.type	value, %object
 630              		.size	value, 1
 631              	value:
 632 0001 00       		.space	1
 633              		.text
 634              	.Letext0:
 635              		.file 2 "Lib_led.h"
 636              		.file 3 "Generated_Source\\PSoC4/CyLib.h"
 637              		.file 4 "Generated_Source\\PSoC4/Filas.h"
 638              		.file 5 "Generated_Source\\PSoC4/Col.h"
 639              		.file 6 "c:\\program files (x86)\\cypress\\psoc creator\\4.3\\psoc creator\\import\\gnu\\arm\\5.4.
 640              		.file 7 "Generated_Source\\PSoC4/UART.h"
 641              		.file 8 "Generated_Source\\PSoC4/IsrRowPins.h"
 642              		.file 9 "Generated_Source\\PSoC4/cytypes.h"
 643              		.file 10 "<built-in>"