ARM GAS  C:\Users\biosh\AppData\Local\Temp\cc950yII.s 			page 1


   1              		.syntax unified
   2              		.cpu cortex-m0
   3              		.fpu softvfp
   4              		.eabi_attribute 20, 1
   5              		.eabi_attribute 21, 1
   6              		.eabi_attribute 23, 3
   7              		.eabi_attribute 24, 1
   8              		.eabi_attribute 25, 1
   9              		.eabi_attribute 26, 1
  10              		.eabi_attribute 30, 1
  11              		.eabi_attribute 34, 0
  12              		.eabi_attribute 18, 4
  13              		.thumb
  14              		.syntax unified
  15              		.file	"Led_pins.c"
  16              		.text
  17              	.Ltext0:
  18              		.cfi_sections	.debug_frame
  19              		.section	.text.Led_pins_SetDriveMode,"ax",%progbits
  20              		.align	2
  21              		.global	Led_pins_SetDriveMode
  22              		.code	16
  23              		.thumb_func
  24              		.type	Led_pins_SetDriveMode, %function
  25              	Led_pins_SetDriveMode:
  26              	.LFB0:
  27              		.file 1 "Generated_Source\\PSoC4\\Led_pins.c"
   1:Generated_Source\PSoC4/Led_pins.c **** /*******************************************************************************
   2:Generated_Source\PSoC4/Led_pins.c **** * File Name: Led_pins.c  
   3:Generated_Source\PSoC4/Led_pins.c **** * Version 2.20
   4:Generated_Source\PSoC4/Led_pins.c **** *
   5:Generated_Source\PSoC4/Led_pins.c **** * Description:
   6:Generated_Source\PSoC4/Led_pins.c **** *  This file contains API to enable firmware control of a Pins component.
   7:Generated_Source\PSoC4/Led_pins.c **** *
   8:Generated_Source\PSoC4/Led_pins.c **** ********************************************************************************
   9:Generated_Source\PSoC4/Led_pins.c **** * Copyright 2008-2015, Cypress Semiconductor Corporation.  All rights reserved.
  10:Generated_Source\PSoC4/Led_pins.c **** * You may use this file only in accordance with the license, terms, conditions, 
  11:Generated_Source\PSoC4/Led_pins.c **** * disclaimers, and limitations in the end user license agreement accompanying 
  12:Generated_Source\PSoC4/Led_pins.c **** * the software package with which this file was provided.
  13:Generated_Source\PSoC4/Led_pins.c **** *******************************************************************************/
  14:Generated_Source\PSoC4/Led_pins.c **** 
  15:Generated_Source\PSoC4/Led_pins.c **** #include "cytypes.h"
  16:Generated_Source\PSoC4/Led_pins.c **** #include "Led_pins.h"
  17:Generated_Source\PSoC4/Led_pins.c **** 
  18:Generated_Source\PSoC4/Led_pins.c **** 
  19:Generated_Source\PSoC4/Led_pins.c **** #if defined(Led_pins__PC)
  20:Generated_Source\PSoC4/Led_pins.c ****     #define Led_pins_SetP4PinDriveMode(shift, mode)  \
  21:Generated_Source\PSoC4/Led_pins.c ****     do { \
  22:Generated_Source\PSoC4/Led_pins.c ****         Led_pins_PC =   (Led_pins_PC & \
  23:Generated_Source\PSoC4/Led_pins.c ****                                 (uint32)(~(uint32)(Led_pins_DRIVE_MODE_IND_MASK << \
  24:Generated_Source\PSoC4/Led_pins.c ****                                 (Led_pins_DRIVE_MODE_BITS * (shift))))) | \
  25:Generated_Source\PSoC4/Led_pins.c ****                                 (uint32)((uint32)(mode) << \
  26:Generated_Source\PSoC4/Led_pins.c ****                                 (Led_pins_DRIVE_MODE_BITS * (shift))); \
  27:Generated_Source\PSoC4/Led_pins.c ****     } while (0)
  28:Generated_Source\PSoC4/Led_pins.c **** #else
  29:Generated_Source\PSoC4/Led_pins.c ****     #if (CY_PSOC4_4200L)
  30:Generated_Source\PSoC4/Led_pins.c ****         #define Led_pins_SetP4PinDriveMode(shift, mode)  \
ARM GAS  C:\Users\biosh\AppData\Local\Temp\cc950yII.s 			page 2


  31:Generated_Source\PSoC4/Led_pins.c ****         do { \
  32:Generated_Source\PSoC4/Led_pins.c ****             Led_pins_USBIO_CTRL_REG = (Led_pins_USBIO_CTRL_REG & \
  33:Generated_Source\PSoC4/Led_pins.c ****                                     (uint32)(~(uint32)(Led_pins_DRIVE_MODE_IND_MASK << \
  34:Generated_Source\PSoC4/Led_pins.c ****                                     (Led_pins_DRIVE_MODE_BITS * (shift))))) | \
  35:Generated_Source\PSoC4/Led_pins.c ****                                     (uint32)((uint32)(mode) << \
  36:Generated_Source\PSoC4/Led_pins.c ****                                     (Led_pins_DRIVE_MODE_BITS * (shift))); \
  37:Generated_Source\PSoC4/Led_pins.c ****         } while (0)
  38:Generated_Source\PSoC4/Led_pins.c ****     #endif
  39:Generated_Source\PSoC4/Led_pins.c **** #endif
  40:Generated_Source\PSoC4/Led_pins.c ****   
  41:Generated_Source\PSoC4/Led_pins.c **** 
  42:Generated_Source\PSoC4/Led_pins.c **** #if defined(Led_pins__PC) || (CY_PSOC4_4200L) 
  43:Generated_Source\PSoC4/Led_pins.c ****     /*******************************************************************************
  44:Generated_Source\PSoC4/Led_pins.c ****     * Function Name: Led_pins_SetDriveMode
  45:Generated_Source\PSoC4/Led_pins.c ****     ****************************************************************************//**
  46:Generated_Source\PSoC4/Led_pins.c ****     *
  47:Generated_Source\PSoC4/Led_pins.c ****     * \brief Sets the drive mode for each of the Pins component's pins.
  48:Generated_Source\PSoC4/Led_pins.c ****     * 
  49:Generated_Source\PSoC4/Led_pins.c ****     * <b>Note</b> This affects all pins in the Pins component instance. Use the
  50:Generated_Source\PSoC4/Led_pins.c ****     * Per-Pin APIs if you wish to control individual pin's drive modes.
  51:Generated_Source\PSoC4/Led_pins.c ****     *
  52:Generated_Source\PSoC4/Led_pins.c ****     * <b>Note</b> USBIOs have limited drive functionality. Refer to the Drive Mode
  53:Generated_Source\PSoC4/Led_pins.c ****     * parameter for more information.
  54:Generated_Source\PSoC4/Led_pins.c ****     *
  55:Generated_Source\PSoC4/Led_pins.c ****     * \param mode
  56:Generated_Source\PSoC4/Led_pins.c ****     *  Mode for the selected signals. Valid options are documented in 
  57:Generated_Source\PSoC4/Led_pins.c ****     *  \ref driveMode.
  58:Generated_Source\PSoC4/Led_pins.c ****     *
  59:Generated_Source\PSoC4/Led_pins.c ****     * \return
  60:Generated_Source\PSoC4/Led_pins.c ****     *  None
  61:Generated_Source\PSoC4/Led_pins.c ****     *
  62:Generated_Source\PSoC4/Led_pins.c ****     * \sideeffect
  63:Generated_Source\PSoC4/Led_pins.c ****     *  If you use read-modify-write operations that are not atomic, the ISR can
  64:Generated_Source\PSoC4/Led_pins.c ****     *  cause corruption of this function. An ISR that interrupts this function 
  65:Generated_Source\PSoC4/Led_pins.c ****     *  and performs writes to the Pins component Drive Mode registers can cause 
  66:Generated_Source\PSoC4/Led_pins.c ****     *  corrupted port data. To avoid this issue, you should either use the Per-Pin
  67:Generated_Source\PSoC4/Led_pins.c ****     *  APIs (primary method) or disable interrupts around this function.
  68:Generated_Source\PSoC4/Led_pins.c ****     *
  69:Generated_Source\PSoC4/Led_pins.c ****     * \funcusage
  70:Generated_Source\PSoC4/Led_pins.c ****     *  \snippet Led_pins_SUT.c usage_Led_pins_SetDriveMode
  71:Generated_Source\PSoC4/Led_pins.c ****     *******************************************************************************/
  72:Generated_Source\PSoC4/Led_pins.c ****     void Led_pins_SetDriveMode(uint8 mode)
  73:Generated_Source\PSoC4/Led_pins.c ****     {
  28              		.loc 1 73 0
  29              		.cfi_startproc
  30              		@ args = 0, pretend = 0, frame = 0
  31              		@ frame_needed = 0, uses_anonymous_args = 0
  32              		@ link register save eliminated.
  33              	.LVL0:
  74:Generated_Source\PSoC4/Led_pins.c **** 		Led_pins_SetP4PinDriveMode(Led_pins__0__SHIFT, mode);
  34              		.loc 1 74 0
  35 0000 094B     		ldr	r3, .L2
  36 0002 1968     		ldr	r1, [r3]
  37 0004 094A     		ldr	r2, .L2+4
  38 0006 0A40     		ands	r2, r1
  39 0008 4102     		lsls	r1, r0, #9
  40 000a 0A43     		orrs	r2, r1
ARM GAS  C:\Users\biosh\AppData\Local\Temp\cc950yII.s 			page 3


  41 000c 1A60     		str	r2, [r3]
  75:Generated_Source\PSoC4/Led_pins.c **** 		Led_pins_SetP4PinDriveMode(Led_pins__1__SHIFT, mode);
  42              		.loc 1 75 0
  43 000e 1968     		ldr	r1, [r3]
  44 0010 074A     		ldr	r2, .L2+8
  45 0012 0A40     		ands	r2, r1
  46 0014 0103     		lsls	r1, r0, #12
  47 0016 0A43     		orrs	r2, r1
  48 0018 1A60     		str	r2, [r3]
  76:Generated_Source\PSoC4/Led_pins.c **** 		Led_pins_SetP4PinDriveMode(Led_pins__2__SHIFT, mode);
  49              		.loc 1 76 0
  50 001a 1968     		ldr	r1, [r3]
  51 001c 054A     		ldr	r2, .L2+12
  52 001e 0A40     		ands	r2, r1
  53 0020 C003     		lsls	r0, r0, #15
  54              	.LVL1:
  55 0022 1043     		orrs	r0, r2
  56 0024 1860     		str	r0, [r3]
  77:Generated_Source\PSoC4/Led_pins.c ****     }
  57              		.loc 1 77 0
  58              		@ sp needed
  59 0026 7047     		bx	lr
  60              	.L3:
  61              		.align	2
  62              	.L2:
  63 0028 08040440 		.word	1074005000
  64 002c FFF1FFFF 		.word	-3585
  65 0030 FF8FFFFF 		.word	-28673
  66 0034 FF7FFCFF 		.word	-229377
  67              		.cfi_endproc
  68              	.LFE0:
  69              		.size	Led_pins_SetDriveMode, .-Led_pins_SetDriveMode
  70              		.section	.text.Led_pins_Write,"ax",%progbits
  71              		.align	2
  72              		.global	Led_pins_Write
  73              		.code	16
  74              		.thumb_func
  75              		.type	Led_pins_Write, %function
  76              	Led_pins_Write:
  77              	.LFB1:
  78:Generated_Source\PSoC4/Led_pins.c **** #endif
  79:Generated_Source\PSoC4/Led_pins.c **** 
  80:Generated_Source\PSoC4/Led_pins.c **** 
  81:Generated_Source\PSoC4/Led_pins.c **** /*******************************************************************************
  82:Generated_Source\PSoC4/Led_pins.c **** * Function Name: Led_pins_Write
  83:Generated_Source\PSoC4/Led_pins.c **** ****************************************************************************//**
  84:Generated_Source\PSoC4/Led_pins.c **** *
  85:Generated_Source\PSoC4/Led_pins.c **** * \brief Writes the value to the physical port (data output register), masking
  86:Generated_Source\PSoC4/Led_pins.c **** *  and shifting the bits appropriately. 
  87:Generated_Source\PSoC4/Led_pins.c **** *
  88:Generated_Source\PSoC4/Led_pins.c **** * The data output register controls the signal applied to the physical pin in 
  89:Generated_Source\PSoC4/Led_pins.c **** * conjunction with the drive mode parameter. This function avoids changing 
  90:Generated_Source\PSoC4/Led_pins.c **** * other bits in the port by using the appropriate method (read-modify-write or
  91:Generated_Source\PSoC4/Led_pins.c **** * bit banding).
  92:Generated_Source\PSoC4/Led_pins.c **** *
  93:Generated_Source\PSoC4/Led_pins.c **** * <b>Note</b> This function should not be used on a hardware digital output pin 
  94:Generated_Source\PSoC4/Led_pins.c **** * as it is driven by the hardware signal attached to it.
ARM GAS  C:\Users\biosh\AppData\Local\Temp\cc950yII.s 			page 4


  95:Generated_Source\PSoC4/Led_pins.c **** *
  96:Generated_Source\PSoC4/Led_pins.c **** * \param value
  97:Generated_Source\PSoC4/Led_pins.c **** *  Value to write to the component instance.
  98:Generated_Source\PSoC4/Led_pins.c **** *
  99:Generated_Source\PSoC4/Led_pins.c **** * \return 
 100:Generated_Source\PSoC4/Led_pins.c **** *  None 
 101:Generated_Source\PSoC4/Led_pins.c **** *
 102:Generated_Source\PSoC4/Led_pins.c **** * \sideeffect
 103:Generated_Source\PSoC4/Led_pins.c **** *  If you use read-modify-write operations that are not atomic; the Interrupt 
 104:Generated_Source\PSoC4/Led_pins.c **** *  Service Routines (ISR) can cause corruption of this function. An ISR that 
 105:Generated_Source\PSoC4/Led_pins.c **** *  interrupts this function and performs writes to the Pins component data 
 106:Generated_Source\PSoC4/Led_pins.c **** *  register can cause corrupted port data. To avoid this issue, you should 
 107:Generated_Source\PSoC4/Led_pins.c **** *  either use the Per-Pin APIs (primary method) or disable interrupts around 
 108:Generated_Source\PSoC4/Led_pins.c **** *  this function.
 109:Generated_Source\PSoC4/Led_pins.c **** *
 110:Generated_Source\PSoC4/Led_pins.c **** * \funcusage
 111:Generated_Source\PSoC4/Led_pins.c **** *  \snippet Led_pins_SUT.c usage_Led_pins_Write
 112:Generated_Source\PSoC4/Led_pins.c **** *******************************************************************************/
 113:Generated_Source\PSoC4/Led_pins.c **** void Led_pins_Write(uint8 value)
 114:Generated_Source\PSoC4/Led_pins.c **** {
  78              		.loc 1 114 0
  79              		.cfi_startproc
  80              		@ args = 0, pretend = 0, frame = 0
  81              		@ frame_needed = 0, uses_anonymous_args = 0
  82              		@ link register save eliminated.
  83              	.LVL2:
 115:Generated_Source\PSoC4/Led_pins.c ****     uint8 drVal = (uint8)(Led_pins_DR & (uint8)(~Led_pins_MASK));
  84              		.loc 1 115 0
  85 0000 0449     		ldr	r1, .L5
  86 0002 0A68     		ldr	r2, [r1]
  87 0004 D2B2     		uxtb	r2, r2
  88 0006 3823     		movs	r3, #56
  89 0008 9A43     		bics	r2, r3
  90              	.LVL3:
 116:Generated_Source\PSoC4/Led_pins.c ****     drVal = (drVal | ((uint8)(value << Led_pins_SHIFT) & Led_pins_MASK));
  91              		.loc 1 116 0
  92 000a C000     		lsls	r0, r0, #3
  93              	.LVL4:
  94 000c 1840     		ands	r0, r3
  95 000e 1043     		orrs	r0, r2
  96              	.LVL5:
 117:Generated_Source\PSoC4/Led_pins.c ****     Led_pins_DR = (uint32)drVal;
  97              		.loc 1 117 0
  98 0010 0860     		str	r0, [r1]
 118:Generated_Source\PSoC4/Led_pins.c **** }
  99              		.loc 1 118 0
 100              		@ sp needed
 101 0012 7047     		bx	lr
 102              	.L6:
 103              		.align	2
 104              	.L5:
 105 0014 00040440 		.word	1074004992
 106              		.cfi_endproc
 107              	.LFE1:
 108              		.size	Led_pins_Write, .-Led_pins_Write
 109              		.section	.text.Led_pins_Read,"ax",%progbits
 110              		.align	2
ARM GAS  C:\Users\biosh\AppData\Local\Temp\cc950yII.s 			page 5


 111              		.global	Led_pins_Read
 112              		.code	16
 113              		.thumb_func
 114              		.type	Led_pins_Read, %function
 115              	Led_pins_Read:
 116              	.LFB2:
 119:Generated_Source\PSoC4/Led_pins.c **** 
 120:Generated_Source\PSoC4/Led_pins.c **** 
 121:Generated_Source\PSoC4/Led_pins.c **** /*******************************************************************************
 122:Generated_Source\PSoC4/Led_pins.c **** * Function Name: Led_pins_Read
 123:Generated_Source\PSoC4/Led_pins.c **** ****************************************************************************//**
 124:Generated_Source\PSoC4/Led_pins.c **** *
 125:Generated_Source\PSoC4/Led_pins.c **** * \brief Reads the associated physical port (pin status register) and masks 
 126:Generated_Source\PSoC4/Led_pins.c **** *  the required bits according to the width and bit position of the component
 127:Generated_Source\PSoC4/Led_pins.c **** *  instance. 
 128:Generated_Source\PSoC4/Led_pins.c **** *
 129:Generated_Source\PSoC4/Led_pins.c **** * The pin's status register returns the current logic level present on the 
 130:Generated_Source\PSoC4/Led_pins.c **** * physical pin.
 131:Generated_Source\PSoC4/Led_pins.c **** *
 132:Generated_Source\PSoC4/Led_pins.c **** * \return 
 133:Generated_Source\PSoC4/Led_pins.c **** *  The current value for the pins in the component as a right justified number.
 134:Generated_Source\PSoC4/Led_pins.c **** *
 135:Generated_Source\PSoC4/Led_pins.c **** * \funcusage
 136:Generated_Source\PSoC4/Led_pins.c **** *  \snippet Led_pins_SUT.c usage_Led_pins_Read  
 137:Generated_Source\PSoC4/Led_pins.c **** *******************************************************************************/
 138:Generated_Source\PSoC4/Led_pins.c **** uint8 Led_pins_Read(void)
 139:Generated_Source\PSoC4/Led_pins.c **** {
 117              		.loc 1 139 0
 118              		.cfi_startproc
 119              		@ args = 0, pretend = 0, frame = 0
 120              		@ frame_needed = 0, uses_anonymous_args = 0
 121              		@ link register save eliminated.
 140:Generated_Source\PSoC4/Led_pins.c ****     return (uint8)((Led_pins_PS & Led_pins_MASK) >> Led_pins_SHIFT);
 122              		.loc 1 140 0
 123 0000 024B     		ldr	r3, .L8
 124 0002 1868     		ldr	r0, [r3]
 125 0004 C008     		lsrs	r0, r0, #3
 126 0006 0723     		movs	r3, #7
 127 0008 1840     		ands	r0, r3
 141:Generated_Source\PSoC4/Led_pins.c **** }
 128              		.loc 1 141 0
 129              		@ sp needed
 130 000a 7047     		bx	lr
 131              	.L9:
 132              		.align	2
 133              	.L8:
 134 000c 04040440 		.word	1074004996
 135              		.cfi_endproc
 136              	.LFE2:
 137              		.size	Led_pins_Read, .-Led_pins_Read
 138              		.section	.text.Led_pins_ReadDataReg,"ax",%progbits
 139              		.align	2
 140              		.global	Led_pins_ReadDataReg
 141              		.code	16
 142              		.thumb_func
 143              		.type	Led_pins_ReadDataReg, %function
 144              	Led_pins_ReadDataReg:
ARM GAS  C:\Users\biosh\AppData\Local\Temp\cc950yII.s 			page 6


 145              	.LFB3:
 142:Generated_Source\PSoC4/Led_pins.c **** 
 143:Generated_Source\PSoC4/Led_pins.c **** 
 144:Generated_Source\PSoC4/Led_pins.c **** /*******************************************************************************
 145:Generated_Source\PSoC4/Led_pins.c **** * Function Name: Led_pins_ReadDataReg
 146:Generated_Source\PSoC4/Led_pins.c **** ****************************************************************************//**
 147:Generated_Source\PSoC4/Led_pins.c **** *
 148:Generated_Source\PSoC4/Led_pins.c **** * \brief Reads the associated physical port's data output register and masks 
 149:Generated_Source\PSoC4/Led_pins.c **** *  the correct bits according to the width and bit position of the component 
 150:Generated_Source\PSoC4/Led_pins.c **** *  instance. 
 151:Generated_Source\PSoC4/Led_pins.c **** *
 152:Generated_Source\PSoC4/Led_pins.c **** * The data output register controls the signal applied to the physical pin in 
 153:Generated_Source\PSoC4/Led_pins.c **** * conjunction with the drive mode parameter. This is not the same as the 
 154:Generated_Source\PSoC4/Led_pins.c **** * preferred Led_pins_Read() API because the 
 155:Generated_Source\PSoC4/Led_pins.c **** * Led_pins_ReadDataReg() reads the data register instead of the status 
 156:Generated_Source\PSoC4/Led_pins.c **** * register. For output pins this is a useful function to determine the value 
 157:Generated_Source\PSoC4/Led_pins.c **** * just written to the pin.
 158:Generated_Source\PSoC4/Led_pins.c **** *
 159:Generated_Source\PSoC4/Led_pins.c **** * \return 
 160:Generated_Source\PSoC4/Led_pins.c **** *  The current value of the data register masked and shifted into a right 
 161:Generated_Source\PSoC4/Led_pins.c **** *  justified number for the component instance.
 162:Generated_Source\PSoC4/Led_pins.c **** *
 163:Generated_Source\PSoC4/Led_pins.c **** * \funcusage
 164:Generated_Source\PSoC4/Led_pins.c **** *  \snippet Led_pins_SUT.c usage_Led_pins_ReadDataReg 
 165:Generated_Source\PSoC4/Led_pins.c **** *******************************************************************************/
 166:Generated_Source\PSoC4/Led_pins.c **** uint8 Led_pins_ReadDataReg(void)
 167:Generated_Source\PSoC4/Led_pins.c **** {
 146              		.loc 1 167 0
 147              		.cfi_startproc
 148              		@ args = 0, pretend = 0, frame = 0
 149              		@ frame_needed = 0, uses_anonymous_args = 0
 150              		@ link register save eliminated.
 168:Generated_Source\PSoC4/Led_pins.c ****     return (uint8)((Led_pins_DR & Led_pins_MASK) >> Led_pins_SHIFT);
 151              		.loc 1 168 0
 152 0000 024B     		ldr	r3, .L11
 153 0002 1868     		ldr	r0, [r3]
 154 0004 C008     		lsrs	r0, r0, #3
 155 0006 0723     		movs	r3, #7
 156 0008 1840     		ands	r0, r3
 169:Generated_Source\PSoC4/Led_pins.c **** }
 157              		.loc 1 169 0
 158              		@ sp needed
 159 000a 7047     		bx	lr
 160              	.L12:
 161              		.align	2
 162              	.L11:
 163 000c 00040440 		.word	1074004992
 164              		.cfi_endproc
 165              	.LFE3:
 166              		.size	Led_pins_ReadDataReg, .-Led_pins_ReadDataReg
 167              		.section	.text.Led_pins_SetInterruptMode,"ax",%progbits
 168              		.align	2
 169              		.global	Led_pins_SetInterruptMode
 170              		.code	16
 171              		.thumb_func
 172              		.type	Led_pins_SetInterruptMode, %function
 173              	Led_pins_SetInterruptMode:
ARM GAS  C:\Users\biosh\AppData\Local\Temp\cc950yII.s 			page 7


 174              	.LFB4:
 170:Generated_Source\PSoC4/Led_pins.c **** 
 171:Generated_Source\PSoC4/Led_pins.c **** 
 172:Generated_Source\PSoC4/Led_pins.c **** /*******************************************************************************
 173:Generated_Source\PSoC4/Led_pins.c **** * Function Name: Led_pins_SetInterruptMode
 174:Generated_Source\PSoC4/Led_pins.c **** ****************************************************************************//**
 175:Generated_Source\PSoC4/Led_pins.c **** *
 176:Generated_Source\PSoC4/Led_pins.c **** * \brief Configures the interrupt mode for each of the Pins component's
 177:Generated_Source\PSoC4/Led_pins.c **** *  pins. Alternatively you may set the interrupt mode for all the pins
 178:Generated_Source\PSoC4/Led_pins.c **** *  specified in the Pins component.
 179:Generated_Source\PSoC4/Led_pins.c **** *
 180:Generated_Source\PSoC4/Led_pins.c **** *  <b>Note</b> The interrupt is port-wide and therefore any enabled pin
 181:Generated_Source\PSoC4/Led_pins.c **** *  interrupt may trigger it.
 182:Generated_Source\PSoC4/Led_pins.c **** *
 183:Generated_Source\PSoC4/Led_pins.c **** * \param position
 184:Generated_Source\PSoC4/Led_pins.c **** *  The pin position as listed in the Pins component. You may OR these to be 
 185:Generated_Source\PSoC4/Led_pins.c **** *  able to configure the interrupt mode of multiple pins within a Pins 
 186:Generated_Source\PSoC4/Led_pins.c **** *  component. Or you may use Led_pins_INTR_ALL to configure the
 187:Generated_Source\PSoC4/Led_pins.c **** *  interrupt mode of all the pins in the Pins component.       
 188:Generated_Source\PSoC4/Led_pins.c **** *  - Led_pins_0_INTR       (First pin in the list)
 189:Generated_Source\PSoC4/Led_pins.c **** *  - Led_pins_1_INTR       (Second pin in the list)
 190:Generated_Source\PSoC4/Led_pins.c **** *  - ...
 191:Generated_Source\PSoC4/Led_pins.c **** *  - Led_pins_INTR_ALL     (All pins in Pins component)
 192:Generated_Source\PSoC4/Led_pins.c **** *
 193:Generated_Source\PSoC4/Led_pins.c **** * \param mode
 194:Generated_Source\PSoC4/Led_pins.c **** *  Interrupt mode for the selected pins. Valid options are documented in
 195:Generated_Source\PSoC4/Led_pins.c **** *  \ref intrMode.
 196:Generated_Source\PSoC4/Led_pins.c **** *
 197:Generated_Source\PSoC4/Led_pins.c **** * \return 
 198:Generated_Source\PSoC4/Led_pins.c **** *  None
 199:Generated_Source\PSoC4/Led_pins.c **** *  
 200:Generated_Source\PSoC4/Led_pins.c **** * \sideeffect
 201:Generated_Source\PSoC4/Led_pins.c **** *  It is recommended that the interrupt be disabled before calling this 
 202:Generated_Source\PSoC4/Led_pins.c **** *  function to avoid unintended interrupt requests. Note that the interrupt
 203:Generated_Source\PSoC4/Led_pins.c **** *  type is port wide, and therefore will trigger for any enabled pin on the 
 204:Generated_Source\PSoC4/Led_pins.c **** *  port.
 205:Generated_Source\PSoC4/Led_pins.c **** *
 206:Generated_Source\PSoC4/Led_pins.c **** * \funcusage
 207:Generated_Source\PSoC4/Led_pins.c **** *  \snippet Led_pins_SUT.c usage_Led_pins_SetInterruptMode
 208:Generated_Source\PSoC4/Led_pins.c **** *******************************************************************************/
 209:Generated_Source\PSoC4/Led_pins.c **** void Led_pins_SetInterruptMode(uint16 position, uint16 mode)
 210:Generated_Source\PSoC4/Led_pins.c **** {
 175              		.loc 1 210 0
 176              		.cfi_startproc
 177              		@ args = 0, pretend = 0, frame = 0
 178              		@ frame_needed = 0, uses_anonymous_args = 0
 179              		@ link register save eliminated.
 180              	.LVL6:
 211:Generated_Source\PSoC4/Led_pins.c ****     uint32 intrCfg;
 212:Generated_Source\PSoC4/Led_pins.c ****     
 213:Generated_Source\PSoC4/Led_pins.c ****     intrCfg =  Led_pins_INTCFG & (uint32)(~(uint32)position);
 181              		.loc 1 213 0
 182 0000 034A     		ldr	r2, .L14
 183 0002 1368     		ldr	r3, [r2]
 184 0004 8343     		bics	r3, r0
 185              	.LVL7:
 214:Generated_Source\PSoC4/Led_pins.c ****     Led_pins_INTCFG = intrCfg | ((uint32)position & (uint32)mode);
ARM GAS  C:\Users\biosh\AppData\Local\Temp\cc950yII.s 			page 8


 186              		.loc 1 214 0
 187 0006 0840     		ands	r0, r1
 188              	.LVL8:
 189 0008 1843     		orrs	r0, r3
 190 000a 1060     		str	r0, [r2]
 215:Generated_Source\PSoC4/Led_pins.c **** }
 191              		.loc 1 215 0
 192              		@ sp needed
 193 000c 7047     		bx	lr
 194              	.L15:
 195 000e C046     		.align	2
 196              	.L14:
 197 0010 0C040440 		.word	1074005004
 198              		.cfi_endproc
 199              	.LFE4:
 200              		.size	Led_pins_SetInterruptMode, .-Led_pins_SetInterruptMode
 201              		.section	.text.Led_pins_ClearInterrupt,"ax",%progbits
 202              		.align	2
 203              		.global	Led_pins_ClearInterrupt
 204              		.code	16
 205              		.thumb_func
 206              		.type	Led_pins_ClearInterrupt, %function
 207              	Led_pins_ClearInterrupt:
 208              	.LFB5:
 216:Generated_Source\PSoC4/Led_pins.c **** 
 217:Generated_Source\PSoC4/Led_pins.c **** 
 218:Generated_Source\PSoC4/Led_pins.c **** /*******************************************************************************
 219:Generated_Source\PSoC4/Led_pins.c **** * Function Name: Led_pins_ClearInterrupt
 220:Generated_Source\PSoC4/Led_pins.c **** ****************************************************************************//**
 221:Generated_Source\PSoC4/Led_pins.c **** *
 222:Generated_Source\PSoC4/Led_pins.c **** * \brief Clears any active interrupts attached with the component and returns 
 223:Generated_Source\PSoC4/Led_pins.c **** *  the value of the interrupt status register allowing determination of which
 224:Generated_Source\PSoC4/Led_pins.c **** *  pins generated an interrupt event.
 225:Generated_Source\PSoC4/Led_pins.c **** *
 226:Generated_Source\PSoC4/Led_pins.c **** * \return 
 227:Generated_Source\PSoC4/Led_pins.c **** *  The right-shifted current value of the interrupt status register. Each pin 
 228:Generated_Source\PSoC4/Led_pins.c **** *  has one bit set if it generated an interrupt event. For example, bit 0 is 
 229:Generated_Source\PSoC4/Led_pins.c **** *  for pin 0 and bit 1 is for pin 1 of the Pins component.
 230:Generated_Source\PSoC4/Led_pins.c **** *  
 231:Generated_Source\PSoC4/Led_pins.c **** * \sideeffect
 232:Generated_Source\PSoC4/Led_pins.c **** *  Clears all bits of the physical port's interrupt status register, not just
 233:Generated_Source\PSoC4/Led_pins.c **** *  those associated with the Pins component.
 234:Generated_Source\PSoC4/Led_pins.c **** *
 235:Generated_Source\PSoC4/Led_pins.c **** * \funcusage
 236:Generated_Source\PSoC4/Led_pins.c **** *  \snippet Led_pins_SUT.c usage_Led_pins_ClearInterrupt
 237:Generated_Source\PSoC4/Led_pins.c **** *******************************************************************************/
 238:Generated_Source\PSoC4/Led_pins.c **** uint8 Led_pins_ClearInterrupt(void)
 239:Generated_Source\PSoC4/Led_pins.c **** {
 209              		.loc 1 239 0
 210              		.cfi_startproc
 211              		@ args = 0, pretend = 0, frame = 0
 212              		@ frame_needed = 0, uses_anonymous_args = 0
 213              		@ link register save eliminated.
 240:Generated_Source\PSoC4/Led_pins.c **** 	uint8 maskedStatus = (uint8)(Led_pins_INTSTAT & Led_pins_MASK);
 214              		.loc 1 240 0
 215 0000 034A     		ldr	r2, .L17
 216 0002 1068     		ldr	r0, [r2]
ARM GAS  C:\Users\biosh\AppData\Local\Temp\cc950yII.s 			page 9


 217 0004 3823     		movs	r3, #56
 218 0006 1840     		ands	r0, r3
 219              	.LVL9:
 241:Generated_Source\PSoC4/Led_pins.c **** 	Led_pins_INTSTAT = maskedStatus;
 220              		.loc 1 241 0
 221 0008 1060     		str	r0, [r2]
 242:Generated_Source\PSoC4/Led_pins.c ****     return maskedStatus >> Led_pins_SHIFT;
 222              		.loc 1 242 0
 223 000a C008     		lsrs	r0, r0, #3
 224              	.LVL10:
 243:Generated_Source\PSoC4/Led_pins.c **** }
 225              		.loc 1 243 0
 226              		@ sp needed
 227 000c 7047     		bx	lr
 228              	.L18:
 229 000e C046     		.align	2
 230              	.L17:
 231 0010 10040440 		.word	1074005008
 232              		.cfi_endproc
 233              	.LFE5:
 234              		.size	Led_pins_ClearInterrupt, .-Led_pins_ClearInterrupt
 235              		.text
 236              	.Letext0:
 237              		.file 2 "Generated_Source\\PSoC4\\cytypes.h"